target datalayout = "e-m:e-p270:32:32-p271:32:32-p272:64:64-i64:64-i128:128-f80:128-n8:16:32:64-S128"
target triple = "x86_64-pc-linux-gnu"

; Function Attrs: nounwind uwtable
define dso_local i32 @_PyToken_ThreeChars(i32 noundef %0, i32 noundef %1, i32 noundef %2) #0 {
  %4 = alloca i32, align 4
  %5 = alloca i32, align 4
  %6 = alloca i32, align 4
  %7 = alloca i32, align 4
  store i32 %0, ptr %5, align 4, !tbaa !4
  store i32 %1, ptr %6, align 4, !tbaa !4
  store i32 %2, ptr %7, align 4, !tbaa !4
  %8 = load i32, ptr %5, align 4, !tbaa !4
  switch i32 %8, label %44 [
    i32 42, label %9
    i32 46, label %16
    i32 47, label %23
    i32 60, label %30
    i32 62, label %37
  ]

9:                                                ; preds = %3
  %10 = load i32, ptr %6, align 4, !tbaa !4
  switch i32 %10, label %15 [
    i32 42, label %11
  ]

11:                                               ; preds = %9
  %12 = load i32, ptr %7, align 4, !tbaa !4
  switch i32 %12, label %14 [
    i32 61, label %13
  ]

13:                                               ; preds = %11
  store i32 46, ptr %4, align 4
  br label %45

14:                                               ; preds = %11
  br label %15

15:                                               ; preds = %9, %14
  br label %44

16:                                               ; preds = %3
  %17 = load i32, ptr %6, align 4, !tbaa !4
  switch i32 %17, label %22 [
    i32 46, label %18
  ]

18:                                               ; preds = %16
  %19 = load i32, ptr %7, align 4, !tbaa !4
  switch i32 %19, label %21 [
    i32 46, label %20
  ]

20:                                               ; preds = %18
  store i32 52, ptr %4, align 4
  br label %45

21:                                               ; preds = %18
  br label %22

22:                                               ; preds = %16, %21
  br label %44

23:                                               ; preds = %3
  %24 = load i32, ptr %6, align 4, !tbaa !4
  switch i32 %24, label %29 [
    i32 47, label %25
  ]

25:                                               ; preds = %23
  %26 = load i32, ptr %7, align 4, !tbaa !4
  switch i32 %26, label %28 [
    i32 61, label %27
  ]

27:                                               ; preds = %25
  store i32 48, ptr %4, align 4
  br label %45

28:                                               ; preds = %25
  br label %29

29:                                               ; preds = %23, %28
  br label %44

30:                                               ; preds = %3
  %31 = load i32, ptr %6, align 4, !tbaa !4
  switch i32 %31, label %36 [
    i32 60, label %32
  ]

32:                                               ; preds = %30
  %33 = load i32, ptr %7, align 4, !tbaa !4
  switch i32 %33, label %35 [
    i32 61, label %34
  ]

34:                                               ; preds = %32
  store i32 44, ptr %4, align 4
  br label %45

35:                                               ; preds = %32
  br label %36

36:                                               ; preds = %30, %35
  br label %44

37:                                               ; preds = %3
  %38 = load i32, ptr %6, align 4, !tbaa !4
  switch i32 %38, label %43 [
    i32 62, label %39
  ]

39:                                               ; preds = %37
  %40 = load i32, ptr %7, align 4, !tbaa !4
  switch i32 %40, label %42 [
    i32 61, label %41
  ]

41:                                               ; preds = %39
  store i32 45, ptr %4, align 4
  br label %45

42:                                               ; preds = %39
  br label %43

43:                                               ; preds = %37, %42
  br label %44

44:                                               ; preds = %3, %43, %36, %29, %22, %15
  store i32 55, ptr %4, align 4
  br label %45

45:                                               ; preds = %44, %41, %34, %27, %20, %13
  %46 = load i32, ptr %4, align 4
  ret i32 %46
}