; Function Attrs: mustprogress nofree norecurse nosync nounwind willreturn memory(none) uwtable
define dso_local range(i32 44, 56) i32 @_PyToken_ThreeChars(i32 noundef %0, i32 noundef %1, i32 noundef %2) local_unnamed_addr #0 {
  switch i32 %0, label %9 [
    i32 42, label %4
    i32 46, label %5
    i32 47, label %6
    i32 60, label %7
    i32 62, label %8
  ]

4:                                                ; preds = %3
  %cond8 = icmp eq i32 %1, 42
  %cond9 = icmp eq i32 %2, 61
  %or.cond = and i1 %cond8, %cond9
  br i1 %or.cond, label %10, label %9

5:                                                ; preds = %3
  %cond6 = icmp eq i32 %1, 46
  %cond7 = icmp eq i32 %2, 46
  %or.cond10 = and i1 %cond6, %cond7
  br i1 %or.cond10, label %10, label %9

6:                                                ; preds = %3
  %cond4 = icmp eq i32 %1, 47
  %cond5 = icmp eq i32 %2, 61
  %or.cond11 = and i1 %cond4, %cond5
  br i1 %or.cond11, label %10, label %9

7:                                                ; preds = %3
  %cond2 = icmp eq i32 %1, 60
  %cond3 = icmp eq i32 %2, 61
  %or.cond12 = and i1 %cond2, %cond3
  br i1 %or.cond12, label %10, label %9

8:                                                ; preds = %3
  %cond = icmp eq i32 %1, 62
  %cond1 = icmp eq i32 %2, 61
  %or.cond13 = and i1 %cond, %cond1
  br i1 %or.cond13, label %10, label %9

9:                                                ; preds = %8, %7, %6, %5, %4, %3
  br label %10

10:                                               ; preds = %8, %7, %6, %5, %4, %9
  %.0 = phi i32 [ 55, %9 ], [ 46, %4 ], [ 52, %5 ], [ 48, %6 ], [ 44, %7 ], [ 45, %8 ]
  ret i32 %.0
}